Certificate:
    Data:
        Version: 3 (0x2)
        Serial Number:
            4c:85:6c:94:4c:1c:e4:78:ec:64:3f:a9:8f:fb:b5:bc
        Signature Algorithm: sha256WithRSAEncryption
        Issuer: CN=openvpnServer
        Validity
            Not Before: Nov  6 14:20:02 2024 GMT
            Not After : Feb  9 14:20:02 2027 GMT
        Subject: CN=openvpnServer
        Subject Public Key Info:
            Public Key Algorithm: rsaEncryption
                Public-Key: (2048 bit)
                Modulus:
                    00:bb:6c:43:28:82:f8:9d:31:31:0a:aa:de:af:54:
                    38:d8:16:6a:06:2c:ec:52:e6:dd:70:84:a9:52:85:
                    56:41:ac:e9:c5:d3:df:42:73:d8:94:09:3e:fe:b1:
                    db:d9:dc:69:23:d8:ba:50:07:5c:10:ec:bb:9e:ac:
                    d8:58:a2:33:24:76:29:1a:4b:3a:58:d5:25:ee:4e:
                    6f:0b:ea:13:68:32:d8:02:f8:41:19:0d:1a:d3:84:
                    64:bc:81:9d:5b:d8:4c:2d:9d:5c:04:4f:69:db:64:
                    70:76:6b:68:b3:5a:4a:7c:8d:9c:6e:b7:7d:79:df:
                    43:72:1e:f6:7b:67:cd:54:80:e8:07:a1:00:7d:ec:
                    e5:37:30:f0:2b:de:32:3e:73:67:ac:36:47:72:84:
                    74:0f:aa:70:f3:5c:6c:06:8e:d6:3e:a2:f4:a1:52:
                    cd:2b:5d:64:ba:d1:56:e1:d3:e1:89:6d:d6:9c:5b:
                    6b:d6:85:e6:a5:fe:bc:5d:57:76:86:b3:06:e4:e3:
                    65:97:3e:4f:1f:a5:14:a1:9b:e4:18:41:ce:59:c5:
                    10:66:96:d4:b7:1d:1d:fe:19:95:27:4c:ea:1b:18:
                    db:03:b2:c9:4f:96:7c:4b:83:9f:8f:08:90:30:d8:
                    bc:50:f0:29:fd:39:5a:85:ce:9b:14:e3:57:46:df:
                    7f:85
                Exponent: 65537 (0x10001)
        X509v3 extensions:
            X509v3 Basic Constraints: 
                CA:FALSE
            X509v3 Subject Key Identifier: 
                41:4A:B3:18:F4:F5:7C:3C:C2:D8:D0:9C:26:ED:E4:69:92:A1:14:C5
            X509v3 Authority Key Identifier: 
                keyid:3D:C0:BA:BD:13:F9:52:18:E3:2C:E1:50:A6:EA:25:8D:03:58:3D:95
                DirName:/CN=openvpnServer
                serial:36:77:72:9C:3C:58:60:F9:30:88:E2:5D:EC:25:D7:88:DB:65:46:1F
            X509v3 Extended Key Usage: 
                TLS Web Server Authentication
            X509v3 Key Usage: 
                Digital Signature, Key Encipherment
    Signature Algorithm: sha256WithRSAEncryption
    Signature Value:
        02:4b:99:d2:62:05:5c:d3:6a:4c:75:e1:cc:f7:9c:48:4f:1c:
        b1:24:b5:07:bb:83:8f:08:37:3e:7c:52:b8:8f:78:38:09:56:
        37:6c:77:25:c3:b1:5f:60:55:8a:d4:58:a7:71:2e:64:e4:31:
        ad:12:26:5a:b0:97:21:c4:98:8b:f8:cd:b1:de:3b:93:84:ff:
        4c:c1:a1:1a:b6:35:b3:42:98:18:8e:1d:59:03:d4:05:9b:a2:
        a0:b1:d3:05:99:74:f4:6d:d0:27:67:7f:8c:3f:1e:92:f9:e0:
        cd:2a:41:42:83:7e:a3:1a:ed:80:d5:9b:f6:3c:6d:f3:52:9e:
        0f:9a:76:5c:b2:fa:85:2c:82:d5:19:4a:10:63:4a:60:8e:0a:
        e5:df:f9:df:ff:f1:a5:ed:78:ab:0e:6f:c7:10:33:56:e1:c0:
        2d:d2:7a:d1:d3:4a:00:db:1f:20:2b:af:b6:0b:41:6b:d0:05:
        97:e2:43:4c:90:65:c4:af:1d:c3:2f:5e:2e:8d:a5:52:2d:40:
        df:5b:c1:43:9d:f1:8f:82:2c:56:94:08:3f:1e:21:a4:08:a5:
        ee:97:a6:ec:68:bb:62:83:e3:c1:17:99:a7:81:02:f9:62:5f:
        dc:6d:e0:52:76:a2:f0:57:60:c8:aa:8a:b3:c7:4b:6d:21:22:
        10:21:ad:53
-----BEGIN CERTIFICATE-----
MIIDXzCCAkegAwIBAgIQTIVslEwc5HjsZD+pj/u1vDANBgkqhkiG9w0BAQsFADAY
MRYwFAYDVQQDDA1vcGVudnBuU2VydmVyMB4XDTI0MTEwNjE0MjAwMloXDTI3MDIw
OTE0MjAwMlowGDEWMBQGA1UEAwwNb3BlbnZwblNlcnZlcjCCASIwDQYJKoZIhvcN
AQEBBQADggEPADCCAQoCggEBALtsQyiC+J0xMQqq3q9UONgWagYs7FLm3XCEqVKF
VkGs6cXT30Jz2JQJPv6x29ncaSPYulAHXBDsu56s2FiiMyR2KRpLOljVJe5Obwvq
E2gy2AL4QRkNGtOEZLyBnVvYTC2dXARPadtkcHZraLNaSnyNnG63fXnfQ3Ie9ntn
zVSA6AehAH3s5Tcw8CveMj5zZ6w2R3KEdA+qcPNcbAaO1j6i9KFSzStdZLrRVuHT
4Ylt1pxba9aF5qX+vF1XdoazBuTjZZc+Tx+lFKGb5BhBzlnFEGaW1LcdHf4ZlSdM
6hsY2wOyyU+WfEuDn48IkDDYvFDwKf05WoXOmxTjV0bff4UCAwEAAaOBpDCBoTAJ
BgNVHRMEAjAAMB0GA1UdDgQWBBRBSrMY9PV8PMLY0Jwm7eRpkqEUxTBTBgNVHSME
TDBKgBQ9wLq9E/lSGOMs4VCm6iWNA1g9laEcpBowGDEWMBQGA1UEAwwNb3BlbnZw
blNlcnZlcoIUNndynDxYYPkwiOJd7CXXiNtlRh8wEwYDVR0lBAwwCgYIKwYBBQUH
AwEwCwYDVR0PBAQDAgWgMA0GCSqGSIb3DQEBCwUAA4IBAQACS5nSYgVc02pMdeHM
95xITxyxJLUHu4OPCDc+fFK4j3g4CVY3bHclw7FfYFWK1FincS5k5DGtEiZasJch
xJiL+M2x3juThP9MwaEatjWzQpgYjh1ZA9QFm6KgsdMFmXT0bdAnZ3+MPx6S+eDN
KkFCg36jGu2A1Zv2PG3zUp4PmnZcsvqFLILVGUoQY0pgjgrl3/nf//Gl7XirDm/H
EDNW4cAt0nrR00oA2x8gK6+2C0Fr0AWX4kNMkGXErx3DL14ujaVSLUDfW8FDnfGP
gixWlAg/HiGkCKXul6bsaLtig+PBF5mngQL5Yl/cbeBSdqLwV2DIqoqzx0ttISIQ
Ia1T
-----END CERTIFICATE-----
